; Function Attrs: mustprogress nofree norecurse nosync nounwind willreturn memory(read, inaccessiblemem: none) uwtable
define hidden i64 @_ZN2cv6detail8tracking11KuhnMunkres22FindUncoveredMinValPosEv(ptr noundef nonnull readonly align 8 captures(none) dereferenceable(268) %0) local_unnamed_addr #8 align 2 {
  %2 = getelementptr inbounds nuw i8, ptr %0, i64 264
  %3 = load i32, ptr %2, align 8, !tbaa !30
  %4 = icmp sgt i32 %3, 0
  br i1 %4, label %.lr.ph30.split.us.preheader, label %._crit_edge

.lr.ph30.split.us.preheader:                      ; preds = %1
  %5 = getelementptr inbounds nuw i8, ptr %0, i64 216
  %6 = load ptr, ptr %5, align 8, !tbaa !51
  %7 = getelementptr inbounds nuw i8, ptr %0, i64 16
  %8 = load ptr, ptr %7, align 8
  %9 = getelementptr inbounds nuw i8, ptr %0, i64 72
  %10 = load ptr, ptr %9, align 8
  %11 = getelementptr inbounds nuw i8, ptr %0, i64 240
  %12 = load ptr, ptr %11, align 8
  %wide.trip.count39 = zext nneg i32 %3 to i64
  br label %.lr.ph30.split.us

.lr.ph30.split.us:                                ; preds = %.lr.ph30.split.us.preheader, %..loopexit_crit_edge.us
  %indvars.iv36 = phi i64 [ 0, %.lr.ph30.split.us.preheader ], [ %indvars.iv.next37, %..loopexit_crit_edge.us ]
  %.01429.us = phi float [ 0x47EFFFFFE0000000, %.lr.ph30.split.us.preheader ], [ %.3.us, %..loopexit_crit_edge.us ]
  %.sroa.3.026.us = phi i32 [ -1, %.lr.ph30.split.us.preheader ], [ %.sroa.3.3.us, %..loopexit_crit_edge.us ]
  %.sroa.018.025.us = phi i32 [ -1, %.lr.ph30.split.us.preheader ], [ %.sroa.018.3.us, %..loopexit_crit_edge.us ]
  %13 = getelementptr inbounds nuw i32, ptr %6, i64 %indvars.iv36
  %14 = load i32, ptr %13, align 4, !tbaa !29
  %.not.us = icmp eq i32 %14, 0
  br i1 %.not.us, label %.lr.ph.us, label %..loopexit_crit_edge.us

.lr.ph.us:                                        ; preds = %.lr.ph30.split.us
  %15 = load i64, ptr %10, align 8, !tbaa !58
  %16 = mul i64 %15, %indvars.iv36
  %17 = getelementptr inbounds nuw i8, ptr %8, i64 %16
  %18 = trunc nuw nsw i64 %indvars.iv36 to i32
  br label %19

..loopexit_crit_edge.us:                          ; preds = %28, %.lr.ph30.split.us
  %.sroa.018.3.us = phi i32 [ %.sroa.018.025.us, %.lr.ph30.split.us ], [ %.sroa.018.2.us, %28 ]
  %.sroa.3.3.us = phi i32 [ %.sroa.3.026.us, %.lr.ph30.split.us ], [ %.sroa.3.2.us, %28 ]
  %.3.us = phi float [ %.01429.us, %.lr.ph30.split.us ], [ %.2.us, %28 ]
  %indvars.iv.next37 = add nuw nsw i64 %indvars.iv36, 1
  %exitcond40.not = icmp eq i64 %indvars.iv.next37, %wide.trip.count39
  br i1 %exitcond40.not, label %._crit_edge.loopexit, label %.lr.ph30.split.us, !llvm.loop !70

19:                                               ; preds = %.lr.ph.us, %28
  %indvars.iv = phi i64 [ 0, %.lr.ph.us ], [ %indvars.iv.next, %28 ]
  %.121.us = phi float [ %.01429.us, %.lr.ph.us ], [ %.2.us, %28 ]
  %.sroa.3.120.us = phi i32 [ %.sroa.3.026.us, %.lr.ph.us ], [ %.sroa.3.2.us, %28 ]
  %.sroa.018.119.us = phi i32 [ %.sroa.018.025.us, %.lr.ph.us ], [ %.sroa.018.2.us, %28 ]
  %20 = getelementptr inbounds nuw i32, ptr %12, i64 %indvars.iv
  %21 = load i32, ptr %20, align 4, !tbaa !29
  %.not17.us = icmp eq i32 %21, 0
  br i1 %.not17.us, label %22, label %28

22:                                               ; preds = %19
  %23 = getelementptr inbounds nuw float, ptr %17, i64 %indvars.iv
  %24 = load float, ptr %23, align 4, !tbaa !71
  %25 = fcmp olt float %24, %.121.us
  br i1 %25, label %26, label %28

26:                                               ; preds = %22
  %27 = trunc nuw nsw i64 %indvars.iv to i32
  br label %28

28:                                               ; preds = %26, %22, %19
  %.sroa.018.2.us = phi i32 [ %27, %26 ], [ %.sroa.018.119.us, %22 ], [ %.sroa.018.119.us, %19 ]
  %.sroa.3.2.us = phi i32 [ %18, %26 ], [ %.sroa.3.120.us, %22 ], [ %.sroa.3.120.us, %19 ]
  %.2.us = phi float [ %24, %26 ], [ %.121.us, %22 ], [ %.121.us, %19 ]
  %indvars.iv.next = add nuw nsw i64 %indvars.iv, 1
  %exitcond.not = icmp eq i64 %indvars.iv.next, %wide.trip.count39
  br i1 %exitcond.not, label %..loopexit_crit_edge.us, label %19, !llvm.loop !73

._crit_edge.loopexit:                             ; preds = %..loopexit_crit_edge.us
  %29 = zext i32 %.sroa.3.3.us to i64
  %30 = shl nuw i64 %29, 32
  %31 = zext i32 %.sroa.018.3.us to i64
  %32 = or disjoint i64 %30, %31
  br label %._crit_edge

._crit_edge:                                      ; preds = %._crit_edge.loopexit, %1
  %.sroa.018.0.insert.insert = phi i64 [ -1, %1 ], [ %32, %._crit_edge.loopexit ]
  ret i64 %.sroa.018.0.insert.insert
}